ccopy_reg
_reconstructor
p0
(cgoogle.oauth2.credentials
Credentials
p1
c__builtin__
object
p2
Ntp3
Rp4
(dp5
S'_token_uri'
p6
Vhttps://oauth2.googleapis.com/token
p7
sS'_scopes'
p8
(lp9
S'https://www.googleapis.com/auth/drive.readonly'
p10
asS'_id_token'
p11
NsS'token'
p12
Vya29.GlyKB-mvfi_mekxDSxgsrhXSO2yviC3wvAG0cnxgn_lvTL9jku2eOJkNxtkyyCnPwncVkJUTgzZ2SM8TUNJUMqjjAgw8OHf2zRimNUmVM4LhNBQFMsdyx1N6XORcuA
p13
sS'_refresh_token'
p14
V1/d50_tuxJGlP6PsOdKq1ZIPS1sqrqQa5Y-7n2N2b9rdw
p15
sS'_client_secret'
p16
V6U4FyN5JBNdMlYON6p9n8MjF
p17
sS'_client_id'
p18
V955832148789-k0bd4u8h9j9ofitscjb9qoncse2jc20s.apps.googleusercontent.com
p19
sS'expiry'
p20
cdatetime
datetime
p21
(S'\x07\xe3\t\x15\x15\x142\x01_\x90'
p22
tp23
Rp24
sb.