ccopy_reg
_reconstructor
p0
(cgoogle.oauth2.credentials
Credentials
p1
c__builtin__
object
p2
Ntp3
Rp4
(dp5
S'_token_uri'
p6
Vhttps://oauth2.googleapis.com/token
p7
sS'_scopes'
p8
(lp9
S'https://www.googleapis.com/auth/drive.readonly'
p10
asS'_id_token'
p11
NsS'token'
p12
Vya29.GlyIBycUeWuJ7Oa-NTW3W0K1Bd2nFIpDcUFm2If4e08LFkMsD4O7-2Qpa2aV-wgSAl0kI4o3xsIq3zw-JYkADdCdYi5NV_zyd2Amgol9KD0s8H4C_gGbu6KOFMfEpQ
p13
sS'_refresh_token'
p14
V1/QTA23GNybSKFSRhSGuSPEwe1M9qHI7dbeRN32UNOFUA
p15
sS'_client_secret'
p16
V6U4FyN5JBNdMlYON6p9n8MjF
p17
sS'_client_id'
p18
V955832148789-k0bd4u8h9j9ofitscjb9qoncse2jc20s.apps.googleusercontent.com
p19
sS'expiry'
p20
cdatetime
datetime
p21
(S'\x07\xe3\t\x13\x13)$\x01z\xe8'
p22
tp23
Rp24
sb.